target datalayout = "e-m:e-p270:32:32-p271:32:32-p272:64:64-i64:64-i128:128-f80:128-n8:16:32:64-S128"
target triple = "x86_64-pc-linux-gnu"

@.str.1105 = private unnamed_addr constant [9 x i8] c"radiotap\00", align 1
@proto_radiotap = internal global i32 0, align 4
@.str.1116 = private unnamed_addr constant [11 x i8] c"wlan_radio\00", align 1
@ieee80211_radio_handle = internal global ptr null, align 8
@.str.1117 = private unnamed_addr constant [11 x i8] c"wtap_encap\00", align 1
@.str.1118 = private unnamed_addr constant [11 x i8] c"sll.hatype\00", align 1
@.str.1119 = private unnamed_addr constant [10 x i8] c"ieee80211\00", align 1
@ieee80211_cap_handle = internal global ptr null, align 8
@.str.1120 = private unnamed_addr constant [18 x i8] c"ieee80211_datapad\00", align 1
@ieee80211_datapad_cap_handle = internal global ptr null, align 8

; Function Attrs: null_pointer_is_valid sspstrong uwtable
define hidden void @proto_reg_handoff_radiotap() #0 {
  %1 = alloca ptr, align 8
  %2 = alloca ptr, align 8
  call void @llvm.lifetime.start.p0(i64 8, ptr %1) #8
  call void @llvm.lifetime.start.p0(i64 8, ptr %2) #8
  %3 = load i32, ptr @proto_radiotap, align 4
  %4 = call ptr @find_dissector_add_dependency(ptr noundef @.str.1116, i32 noundef %3)
  store ptr %4, ptr @ieee80211_radio_handle, align 8
  %5 = load i32, ptr @proto_radiotap, align 4
  %6 = call ptr @find_dissector_add_dependency(ptr noundef @.str.1105, i32 noundef %5)
  store ptr %6, ptr %1, align 8
  %7 = load ptr, ptr %1, align 8
  call void @dissector_add_uint(ptr noundef @.str.1117, i32 noundef 23, ptr noundef %7)
  %8 = load ptr, ptr %1, align 8
  call void @dissector_add_uint(ptr noundef @.str.1118, i32 noundef 803, ptr noundef %8)
  %9 = load i32, ptr @proto_radiotap, align 4
  %10 = call ptr @create_capture_dissector_handle(ptr noundef @capture_radiotap, i32 noundef %9)
  store ptr %10, ptr %2, align 8
  %11 = load ptr, ptr %2, align 8
  call void @capture_dissector_add_uint(ptr noundef @.str.1117, i32 noundef 23, ptr noundef %11)
  %12 = call ptr @find_capture_dissector(ptr noundef @.str.1119)
  store ptr %12, ptr @ieee80211_cap_handle, align 8
  %13 = call ptr @find_capture_dissector(ptr noundef @.str.1120)
  store ptr %13, ptr @ieee80211_datapad_cap_handle, align 8
  call void @llvm.lifetime.end.p0(i64 8, ptr %2) #8
  call void @llvm.lifetime.end.p0(i64 8, ptr %1) #8
  ret void
}