; Function Attrs: null_pointer_is_valid sspstrong uwtable
define hidden void @proto_reg_handoff_radiotap() local_unnamed_addr #0 {
  %1 = load i32, ptr @proto_radiotap, align 4
  %2 = tail call ptr @find_dissector_add_dependency(ptr noundef nonnull @.str.1116, i32 noundef %1)
  store ptr %2, ptr @ieee80211_radio_handle, align 8
  %3 = load i32, ptr @proto_radiotap, align 4
  %4 = tail call ptr @find_dissector_add_dependency(ptr noundef nonnull @.str.1105, i32 noundef %3)
  tail call void @dissector_add_uint(ptr noundef nonnull @.str.1117, i32 noundef 23, ptr noundef %4)
  tail call void @dissector_add_uint(ptr noundef nonnull @.str.1118, i32 noundef 803, ptr noundef %4)
  %5 = load i32, ptr @proto_radiotap, align 4
  %6 = tail call ptr @create_capture_dissector_handle(ptr noundef nonnull @capture_radiotap, i32 noundef %5)
  tail call void @capture_dissector_add_uint(ptr noundef nonnull @.str.1117, i32 noundef 23, ptr noundef %6)
  %7 = tail call ptr @find_capture_dissector(ptr noundef nonnull @.str.1119)
  store ptr %7, ptr @ieee80211_cap_handle, align 8
  %8 = tail call ptr @find_capture_dissector(ptr noundef nonnull @.str.1120)
  store ptr %8, ptr @ieee80211_datapad_cap_handle, align 8
  ret void
}